target datalayout = "e-m:e-p270:32:32-p271:32:32-p272:64:64-i64:64-i128:128-f80:128-n8:16:32:64-S128"
target triple = "x86_64-pc-linux-gnu"

@.str.42 = private unnamed_addr constant [12 x i8] c"__metatable\00", align 1
@.str.53 = private unnamed_addr constant [13 x i8] c"nil or table\00", align 1
@.str.54 = private unnamed_addr constant [36 x i8] c"cannot change a protected metatable\00", align 1

; Function Attrs: nounwind uwtable
define internal i32 @luaB_setmetatable(ptr noundef %0) #0 {
  %2 = alloca i32, align 4
  %3 = alloca ptr, align 8
  %4 = alloca i32, align 4
  %5 = alloca i32, align 4
  store ptr %0, ptr %3, align 8, !tbaa !4
  call void @llvm.lifetime.start.p0(i64 4, ptr %4) #6
  %6 = load ptr, ptr %3, align 8, !tbaa !4
  %7 = call i32 @lua_type(ptr noundef %6, i32 noundef 2)
  store i32 %7, ptr %4, align 4, !tbaa !10
  %8 = load ptr, ptr %3, align 8, !tbaa !4
  call void @luaL_checktype(ptr noundef %8, i32 noundef 1, i32 noundef 5)
  %9 = load i32, ptr %4, align 4, !tbaa !10
  %10 = icmp eq i32 %9, 0
  br i1 %10, label %14, label %11

11:                                               ; preds = %1
  %12 = load i32, ptr %4, align 4, !tbaa !10
  %13 = icmp eq i32 %12, 5
  br label %14

14:                                               ; preds = %11, %1
  %15 = phi i1 [ true, %1 ], [ %13, %11 ]
  %16 = zext i1 %15 to i32
  %17 = icmp ne i32 %16, 0
  %18 = zext i1 %17 to i32
  %19 = sext i32 %18 to i64
  %20 = call i64 @llvm.expect.i64(i64 %19, i64 1)
  %21 = icmp ne i64 %20, 0
  br i1 %21, label %25, label %22

22:                                               ; preds = %14
  %23 = load ptr, ptr %3, align 8, !tbaa !4
  %24 = call i32 @luaL_typeerror(ptr noundef %23, i32 noundef 2, ptr noundef @.str.53)
  br label %25

25:                                               ; preds = %22, %14
  %26 = load ptr, ptr %3, align 8, !tbaa !4
  %27 = call i32 @luaL_getmetafield(ptr noundef %26, i32 noundef 1, ptr noundef @.str.42)
  %28 = icmp ne i32 %27, 0
  %29 = zext i1 %28 to i32
  %30 = icmp ne i32 %29, 0
  %31 = zext i1 %30 to i32
  %32 = sext i32 %31 to i64
  %33 = call i64 @llvm.expect.i64(i64 %32, i64 0)
  %34 = icmp ne i64 %33, 0
  br i1 %34, label %35, label %38

35:                                               ; preds = %25
  %36 = load ptr, ptr %3, align 8, !tbaa !4
  %37 = call i32 (ptr, ptr, ...) @luaL_error(ptr noundef %36, ptr noundef @.str.54)
  store i32 %37, ptr %2, align 4
  store i32 1, ptr %5, align 4
  br label %42

38:                                               ; preds = %25
  %39 = load ptr, ptr %3, align 8, !tbaa !4
  call void @lua_settop(ptr noundef %39, i32 noundef 2)
  %40 = load ptr, ptr %3, align 8, !tbaa !4
  %41 = call i32 @lua_setmetatable(ptr noundef %40, i32 noundef 1)
  store i32 1, ptr %2, align 4
  store i32 1, ptr %5, align 4
  br label %42

42:                                               ; preds = %38, %35
  call void @llvm.lifetime.end.p0(i64 4, ptr %4) #6
  %43 = load i32, ptr %2, align 4
  ret i32 %43
}